; Function Attrs: mustprogress uwtable
define void @_ZN7Imf_3_214TypedAttributeISt6vectorIfSaIfEEE13readValueFromERNS_7IStreamEii(ptr noundef nonnull align 8 dereferenceable(32) %this, ptr noundef nonnull align 8 dereferenceable(40) %is, i32 noundef %size, i32 %version) unnamed_addr #3 align 2 personality ptr @__gxx_personality_v0 {
entry:
  %b.i = alloca [4 x i8], align 4
  %div = sdiv i32 %size, 4
  %_value = getelementptr inbounds i8, ptr %this, i64 8
  %conv = sext i32 %div to i64
  %_M_finish.i.i = getelementptr inbounds i8, ptr %this, i64 16
  %0 = load ptr, ptr %_M_finish.i.i, align 8
  %1 = load ptr, ptr %_value, align 8
  %sub.ptr.lhs.cast.i.i = ptrtoint ptr %0 to i64
  %sub.ptr.rhs.cast.i.i = ptrtoint ptr %1 to i64
  %sub.ptr.sub.i.i = sub i64 %sub.ptr.lhs.cast.i.i, %sub.ptr.rhs.cast.i.i
  %sub.ptr.div.i.i = ashr exact i64 %sub.ptr.sub.i.i, 2
  %cmp.i = icmp ult i64 %sub.ptr.div.i.i, %conv
  br i1 %cmp.i, label %if.then.i, label %if.else.i

if.then.i:                                        ; preds = %entry
  %sub.i = sub nsw i64 %conv, %sub.ptr.div.i.i
  tail call void @_ZNSt6vectorIfSaIfEE17_M_default_appendEm(ptr noundef nonnull align 8 dereferenceable(24) %_value, i64 noundef %sub.i)
  br label %_ZNSt6vectorIfSaIfEE6resizeEm.exit

if.else.i:                                        ; preds = %entry
  %cmp4.i = icmp ugt i64 %sub.ptr.div.i.i, %conv
  br i1 %cmp4.i, label %if.then5.i, label %_ZNSt6vectorIfSaIfEE6resizeEm.exit

if.then5.i:                                       ; preds = %if.else.i
  %add.ptr.i = getelementptr inbounds float, ptr %1, i64 %conv
  %tobool.not.i.i = icmp eq ptr %0, %add.ptr.i
  br i1 %tobool.not.i.i, label %_ZNSt6vectorIfSaIfEE6resizeEm.exit, label %invoke.cont.i.i

invoke.cont.i.i:                                  ; preds = %if.then5.i
  store ptr %add.ptr.i, ptr %_M_finish.i.i, align 8
  br label %_ZNSt6vectorIfSaIfEE6resizeEm.exit

_ZNSt6vectorIfSaIfEE6resizeEm.exit:               ; preds = %if.then.i, %if.else.i, %if.then5.i, %invoke.cont.i.i
  %cmp5 = icmp sgt i32 %size, 3
  br i1 %cmp5, label %for.body.preheader, label %for.end

for.body.preheader:                               ; preds = %_ZNSt6vectorIfSaIfEE6resizeEm.exit
  %wide.trip.count = zext nneg i32 %div to i64
  br label %for.body

for.body:                                         ; preds = %for.body.preheader, %for.body
  %indvars.iv = phi i64 [ 0, %for.body.preheader ], [ %indvars.iv.next, %for.body ]
  %2 = load ptr, ptr %_value, align 8
  %add.ptr.i4 = getelementptr inbounds float, ptr %2, i64 %indvars.iv
  call void @llvm.lifetime.start.p0(i64 4, ptr nonnull %b.i)
  %vtable.i.i.i = load ptr, ptr %is, align 8
  %vfn.i.i.i = getelementptr inbounds i8, ptr %vtable.i.i.i, i64 24
  %3 = load ptr, ptr %vfn.i.i.i, align 8
  %call.i.i.i = call noundef zeroext i1 %3(ptr noundef nonnull align 8 dereferenceable(40) %is, ptr noundef nonnull %b.i, i32 noundef 4)
  %4 = load i32, ptr %b.i, align 4
  store i32 %4, ptr %add.ptr.i4, align 4
  call void @llvm.lifetime.end.p0(i64 4, ptr nonnull %b.i)
  %indvars.iv.next = add nuw nsw i64 %indvars.iv, 1
  %exitcond.not = icmp eq i64 %indvars.iv.next, %wide.trip.count
  br i1 %exitcond.not, label %for.end, label %for.body, !llvm.loop !6

for.end:                                          ; preds = %for.body, %_ZNSt6vectorIfSaIfEE6resizeEm.exit
  ret void
}